; Function Attrs: mustprogress nofree norecurse nosync nounwind willreturn memory(read, inaccessiblemem: none) uwtable
define dso_local i64 @functionsLibCtxFunctionsLen(ptr noundef readonly captures(none) %0) local_unnamed_addr #11 {
  %2 = getelementptr inbounds nuw i8, ptr %0, i64 8
  %3 = load ptr, ptr %2, align 8, !tbaa !33
  %4 = getelementptr inbounds nuw i8, ptr %3, i64 24
  %5 = load i64, ptr %4, align 8, !tbaa !49
  %6 = getelementptr inbounds nuw i8, ptr %3, i64 32
  %7 = load i64, ptr %6, align 8, !tbaa !49
  %8 = add i64 %7, %5
  ret i64 %8
}